; ModuleID = 'source-C-CXX/22/55.c'
source_filename = "source-C-CXX/22/55.c"
target datalayout = "e-m:e-p270:32:32-p271:32:32-p272:64:64-i64:64-f80:128-n8:16:32:64-S128"
target triple = "x86_64-pc-linux-gnu"

@.str.2 = private unnamed_addr constant [3 x i8] c"%s\00", align 1

; Function Attrs: nounwind sspstrong uwtable
define dso_local i32 @main() local_unnamed_addr #0 {
  %1 = alloca [100 x i8], align 16
  %2 = alloca [100 x i8], align 16
  %3 = alloca [100 x [100 x i8]], align 16
  %4 = getelementptr inbounds [100 x i8], [100 x i8]* %1, i64 0, i64 0
  call void @llvm.lifetime.start.p0i8(i64 100, i8* nonnull %4) #6
  %5 = getelementptr inbounds [100 x i8], [100 x i8]* %2, i64 0, i64 0
  call void @llvm.lifetime.start.p0i8(i64 100, i8* nonnull %5) #6
  %6 = getelementptr inbounds [100 x [100 x i8]], [100 x [100 x i8]]* %3, i64 0, i64 0, i64 0
  call void @llvm.lifetime.start.p0i8(i64 10000, i8* nonnull %6) #6
  %7 = call i32 (i8*, ...) bitcast (i32 (...)* @gets to i32 (i8*, ...)*)(i8* nonnull %4) #6
  br label %8

8:                                                ; preds = %21, %0
  %9 = phi i64 [ %24, %21 ], [ 0, %0 ]
  %10 = phi i32 [ %22, %21 ], [ 0, %0 ]
  %11 = phi i32 [ %23, %21 ], [ 0, %0 ]
  %12 = getelementptr inbounds [100 x i8], [100 x i8]* %1, i64 0, i64 %9
  %13 = load i8, i8* %12, align 1, !tbaa !5
  switch i8 %13, label %14 [
    i8 0, label %25
    i8 32, label %19
  ]

14:                                               ; preds = %8
  %15 = sext i32 %10 to i64
  %16 = sext i32 %11 to i64
  %17 = getelementptr inbounds [100 x [100 x i8]], [100 x [100 x i8]]* %3, i64 0, i64 %15, i64 %16
  store i8 %13, i8* %17, align 1, !tbaa !5
  %18 = add nsw i32 %11, 1
  br label %21

19:                                               ; preds = %8
  %20 = add nsw i32 %10, 1
  br label %21

21:                                               ; preds = %14, %19
  %22 = phi i32 [ %10, %14 ], [ %20, %19 ]
  %23 = phi i32 [ %18, %14 ], [ 0, %19 ]
  %24 = add nuw i64 %9, 1
  br label %8, !llvm.loop !8

25:                                               ; preds = %8
  store i8 0, i8* %5, align 16
  %26 = icmp sgt i32 %10, 0
  br i1 %26, label %27, label %38

27:                                               ; preds = %25
  %28 = zext i32 %10 to i64
  br label %29

29:                                               ; preds = %27, %29
  %30 = phi i64 [ %28, %27 ], [ %37, %29 ]
  %31 = getelementptr inbounds [100 x [100 x i8]], [100 x [100 x i8]]* %3, i64 0, i64 %30, i64 0
  %32 = call i8* @strcat(i8* noundef nonnull %5, i8* noundef nonnull %31) #6
  %33 = call i64 @strlen(i8* noundef nonnull %5)
  %34 = getelementptr [100 x i8], [100 x i8]* %2, i64 0, i64 %33
  %35 = bitcast i8* %34 to i16*
  store i16 32, i16* %35, align 1
  %36 = icmp sgt i64 %30, 1
  %37 = add nsw i64 %30, -1
  br i1 %36, label %29, label %38, !llvm.loop !10

38:                                               ; preds = %29, %25
  %39 = call i8* @strcat(i8* noundef nonnull %5, i8* noundef nonnull %6) #6
  %40 = call i32 (i8*, ...) @printf(i8* nonnull dereferenceable(1) getelementptr inbounds ([3 x i8], [3 x i8]* @.str.2, i64 0, i64 0), i8* nonnull %5)
  call void @llvm.lifetime.end.p0i8(i64 10000, i8* nonnull %6) #6
  call void @llvm.lifetime.end.p0i8(i64 100, i8* nonnull %5) #6
  call void @llvm.lifetime.end.p0i8(i64 100, i8* nonnull %4) #6
  ret i32 0
}

; Function Attrs: argmemonly mustprogress nofree nosync nounwind willreturn
declare void @llvm.lifetime.start.p0i8(i64 immarg, i8* nocapture) #1

declare i32 @gets(...) local_unnamed_addr #2

; Function Attrs: argmemonly mustprogress nofree nounwind willreturn
declare i8* @strcat(i8* noalias returned, i8* noalias nocapture readonly) local_unnamed_addr #3

; Function Attrs: nofree nounwind
declare noundef i32 @printf(i8* nocapture noundef readonly, ...) local_unnamed_addr #4

; Function Attrs: argmemonly mustprogress nofree nosync nounwind willreturn
declare void @llvm.lifetime.end.p0i8(i64 immarg, i8* nocapture) #1

; Function Attrs: argmemonly nofree nounwind readonly willreturn
declare i64 @strlen(i8* nocapture) local_unnamed_addr #5


!llvm.module.flags = !{!0, !1, !2, !3}
!llvm.ident = !{!4}

!0 = !{i32 1, !"wchar_size", i32 4}
!1 = !{i32 7, !"PIC Level", i32 2}
!2 = !{i32 7, !"PIE Level", i32 2}
!3 = !{i32 7, !"uwtable", i32 1}
!4 = !{!"clang version 13.0.0"}
!5 = !{!6, !6, i64 0}
!6 = !{!"omnipotent char", !7, i64 0}
!7 = !{!"Simple C/C++ TBAA"}
!8 = distinct !{!8, !9}
!9 = !{!"llvm.loop.mustprogress"}
!10 = distinct !{!10, !9}
